target datalayout = "e-m:e-p270:32:32-p271:32:32-p272:64:64-i64:64-i128:128-f80:128-n8:16:32:64-S128"
target triple = "x86_64-pc-linux-gnu"

@.str = private unnamed_addr constant [4 x i8] c"pk3\00", align 1
@.str.1 = private unnamed_addr constant [4 x i8] c"bsp\00", align 1

; Function Attrs: mustprogress uwtable
define hidden noundef zeroext i1 @_ZNK6Assimp17Q3BSPFileImporter7CanReadERKNSt7__cxx1112basic_stringIcSt11char_traitsIcESaIcEEEPNS_8IOSystemEb(ptr noundef nonnull align 8 dereferenceable(160) %0, ptr noundef nonnull align 8 dereferenceable(32) %1, ptr noundef %2, i1 noundef zeroext %3) unnamed_addr #5 align 2 {
  %5 = alloca i1, align 1
  %6 = alloca ptr, align 8
  %7 = alloca ptr, align 8
  %8 = alloca ptr, align 8
  %9 = alloca i8, align 1
  store ptr %0, ptr %6, align 8
  store ptr %1, ptr %7, align 8
  store ptr %2, ptr %8, align 8
  %10 = zext i1 %3 to i8
  store i8 %10, ptr %9, align 1
  %11 = load i8, ptr %9, align 1, !range !5, !noundef !6
  %12 = trunc i8 %11 to i1
  br i1 %12, label %16, label %13

13:                                               ; preds = %4
  %14 = load ptr, ptr %7, align 8
  %15 = call noundef zeroext i1 @_ZN6Assimp12BaseImporter20SimpleExtensionCheckERKNSt7__cxx1112basic_stringIcSt11char_traitsIcESaIcEEEPKcSA_SA_SA_(ptr noundef nonnull align 8 dereferenceable(32) %14, ptr noundef @.str, ptr noundef @.str.1, ptr noundef null, ptr noundef null)
  store i1 %15, ptr %5, align 1
  br label %17

16:                                               ; preds = %4
  store i1 false, ptr %5, align 1
  br label %17

17:                                               ; preds = %16, %13
  %18 = load i1, ptr %5, align 1
  ret i1 %18
}