; Function Attrs: mustprogress uwtable
define hidden noundef zeroext i1 @_ZNK6Assimp17Q3BSPFileImporter7CanReadERKNSt7__cxx1112basic_stringIcSt11char_traitsIcESaIcEEEPNS_8IOSystemEb(ptr nonnull readnone align 8 captures(none) %0, ptr noundef nonnull align 8 dereferenceable(32) %1, ptr readnone captures(none) %2, i1 noundef zeroext %3) unnamed_addr #6 align 2 {
  br i1 %3, label %7, label %5

5:                                                ; preds = %4
  %6 = tail call noundef zeroext i1 @_ZN6Assimp12BaseImporter20SimpleExtensionCheckERKNSt7__cxx1112basic_stringIcSt11char_traitsIcESaIcEEEPKcSA_SA_SA_(ptr noundef nonnull align 8 dereferenceable(32) %1, ptr noundef nonnull @.str, ptr noundef nonnull @.str.1, ptr noundef null, ptr noundef null)
  br label %7

7:                                                ; preds = %4, %5
  %.0 = phi i1 [ %6, %5 ], [ false, %4 ]
  ret i1 %.0
}